; Function Attrs: mustprogress uwtable
define void @_ZN22LteRlcStatisticsDialog8fillTreeEv(ptr noundef nonnull align 8 dereferenceable(300) %0) unnamed_addr #2 align 2 personality ptr @__gxx_personality_v0 {
  %2 = alloca %class.QByteArray, align 8
  %3 = getelementptr inbounds i8, ptr %0, i64 264
  call void @_ZN7QString15toLatin1_helperERKS_(ptr dead_on_unwind nonnull writable sret(%class.QByteArray) align 8 %2, ptr noundef nonnull align 8 dereferenceable(24) %3)
  %4 = load ptr, ptr %2, align 8
  %.not.i.i.i = icmp eq ptr %4, null
  br i1 %.not.i.i.i, label %_ZNK17QArrayDataPointerIcE11needsDetachEv.exit.thread.i.i, label %_ZNK17QArrayDataPointerIcE11needsDetachEv.exit.i.i

_ZNK17QArrayDataPointerIcE11needsDetachEv.exit.i.i: ; preds = %1
  %5 = load atomic i32, ptr %4 monotonic, align 4
  %6 = icmp sgt i32 %5, 1
  br i1 %6, label %_ZNK17QArrayDataPointerIcE11needsDetachEv.exit.thread.i.i, label %9

_ZNK17QArrayDataPointerIcE11needsDetachEv.exit.thread.i.i: ; preds = %_ZNK17QArrayDataPointerIcE11needsDetachEv.exit.i.i, %1
  %7 = getelementptr inbounds i8, ptr %2, i64 16
  %8 = load i64, ptr %7, align 8
  invoke void @_ZN10QByteArray11reallocDataExN10QArrayData16AllocationOptionE(ptr noundef nonnull align 8 dereferenceable(24) %2, i64 noundef %8, i32 noundef 1)
          to label %9 unwind label %18

9:                                                ; preds = %_ZNK17QArrayDataPointerIcE11needsDetachEv.exit.i.i, %_ZNK17QArrayDataPointerIcE11needsDetachEv.exit.thread.i.i
  %10 = getelementptr inbounds i8, ptr %2, i64 8
  %11 = load ptr, ptr %10, align 8
  %12 = invoke noundef zeroext i1 @_ZN15WiresharkDialog19registerTapListenerEPKcPvS1_jPFvS2_EPF17tap_packet_statusS2_P12_packet_infoP12epan_dissectPKvjES4_(ptr noundef nonnull align 8 dereferenceable(133) %0, ptr noundef nonnull @.str.42, ptr noundef nonnull %0, ptr noundef %11, i32 noundef 0, ptr noundef nonnull @_ZN22LteRlcStatisticsDialog8tapResetEPv, ptr noundef nonnull @_ZN22LteRlcStatisticsDialog9tapPacketEPvP12_packet_infoP12epan_dissectPKvj, ptr noundef nonnull @_ZN22LteRlcStatisticsDialog7tapDrawEPv)
          to label %13 unwind label %18

13:                                               ; preds = %9
  %14 = load ptr, ptr %2, align 8
  %.not.i.i.i2 = icmp eq ptr %14, null
  br i1 %.not.i.i.i2, label %_ZN10QByteArrayD2Ev.exit, label %_ZN17QArrayDataPointerIcE5derefEv.exit.i.i

_ZN17QArrayDataPointerIcE5derefEv.exit.i.i:       ; preds = %13
  %15 = atomicrmw sub ptr %14, i32 1 seq_cst, align 4
  %.not.i.i = icmp eq i32 %15, 1
  br i1 %.not.i.i, label %16, label %_ZN10QByteArrayD2Ev.exit

16:                                               ; preds = %_ZN17QArrayDataPointerIcE5derefEv.exit.i.i
  %17 = load ptr, ptr %2, align 8
  call void @_ZN10QArrayData10deallocateEPS_xx(ptr noundef %17, i64 noundef 1, i64 noundef 8) #19
  br label %_ZN10QByteArrayD2Ev.exit

_ZN10QByteArrayD2Ev.exit:                         ; preds = %13, %_ZN17QArrayDataPointerIcE5derefEv.exit.i.i, %16
  br i1 %12, label %24, label %27

18:                                               ; preds = %_ZNK17QArrayDataPointerIcE11needsDetachEv.exit.thread.i.i, %9
  %19 = landingpad { ptr, i32 }
          cleanup
  %20 = load ptr, ptr %2, align 8
  %.not.i.i.i3 = icmp eq ptr %20, null
  br i1 %.not.i.i.i3, label %_ZN10QByteArrayD2Ev.exit6, label %_ZN17QArrayDataPointerIcE5derefEv.exit.i.i4

_ZN17QArrayDataPointerIcE5derefEv.exit.i.i4:      ; preds = %18
  %21 = atomicrmw sub ptr %20, i32 1 seq_cst, align 4
  %.not.i.i5 = icmp eq i32 %21, 1
  br i1 %.not.i.i5, label %22, label %_ZN10QByteArrayD2Ev.exit6

22:                                               ; preds = %_ZN17QArrayDataPointerIcE5derefEv.exit.i.i4
  %23 = load ptr, ptr %2, align 8
  call void @_ZN10QArrayData10deallocateEPS_xx(ptr noundef %23, i64 noundef 1, i64 noundef 8) #19
  br label %_ZN10QByteArrayD2Ev.exit6

_ZN10QByteArrayD2Ev.exit6:                        ; preds = %18, %_ZN17QArrayDataPointerIcE5derefEv.exit.i.i4, %22
  resume { ptr, i32 } %19

24:                                               ; preds = %_ZN10QByteArrayD2Ev.exit
  %25 = getelementptr inbounds i8, ptr %0, i64 64
  %26 = load ptr, ptr %25, align 8
  call void @_ZN11CaptureFile12retapPacketsEv(ptr noundef nonnull align 8 dereferenceable(48) %26)
  call void @_ZN22LteRlcStatisticsDialog7tapDrawEPv(ptr noundef nonnull %0)
  br label %27

27:                                               ; preds = %_ZN10QByteArrayD2Ev.exit, %24
  %.sink8 = phi i64 [ 472, %24 ], [ 448, %_ZN10QByteArrayD2Ev.exit ]
  %28 = load ptr, ptr %0, align 8
  %29 = getelementptr inbounds i8, ptr %28, i64 %.sink8
  %30 = load ptr, ptr %29, align 8
  call void %30(ptr noundef nonnull align 8 dereferenceable(133) %0)
  ret void
}